; Function Attrs: nounwind uwtable
define ptr @l_Lean_log___at_Lean_Elab_Command_withLoggingExceptions___spec__4(ptr noundef %0, i8 noundef zeroext %1, ptr noundef %2, ptr noundef %3, ptr noundef %4) local_unnamed_addr #0 {
  %6 = getelementptr inbounds nuw i8, ptr %2, i64 56
  %7 = load ptr, ptr %6, align 8, !tbaa !9
  %8 = ptrtoint ptr %7 to i64
  %9 = and i64 %8, 1
  %.not.i20 = icmp eq i64 %9, 0
  br i1 %.not.i20, label %10, label %lean_inc.exit.i

10:                                               ; preds = %5
  %.val.i.i = load i32, ptr %7, align 4, !tbaa !4
  %11 = icmp sgt i32 %.val.i.i, 0
  br i1 %11, label %12, label %14, !prof !13

12:                                               ; preds = %10
  %13 = add nuw i32 %.val.i.i, 1
  store i32 %13, ptr %7, align 4, !tbaa !4
  br label %lean_inc.exit.i

14:                                               ; preds = %10
  %.not.i.i = icmp eq i32 %.val.i.i, 0
  br i1 %.not.i.i, label %lean_inc.exit.i, label %15

15:                                               ; preds = %14
  tail call void @lean_inc_ref_cold(ptr noundef nonnull %7) #6
  br label %lean_inc.exit.i

lean_inc.exit.i:                                  ; preds = %15, %14, %12, %5
  tail call void @lean_inc_heartbeat() #6
  %16 = tail call noalias ptr @mi_malloc_small(i64 noundef 24) #6
  %17 = icmp eq ptr %16, null
  br i1 %17, label %18, label %l_Lean_Elab_Command_getRef.exit

18:                                               ; preds = %lean_inc.exit.i
  tail call void @lean_internal_panic_out_of_memory() #7
  unreachable

l_Lean_Elab_Command_getRef.exit:                  ; preds = %lean_inc.exit.i
  %19 = getelementptr inbounds nuw i8, ptr %16, i64 4
  store i32 1, ptr %16, align 4, !tbaa !4
  store i32 131096, ptr %19, align 4
  %20 = getelementptr inbounds nuw i8, ptr %16, i64 8
  store ptr %7, ptr %20, align 8, !tbaa !9
  %21 = getelementptr inbounds nuw i8, ptr %16, i64 16
  store ptr %4, ptr %21, align 8, !tbaa !9
  br i1 %.not.i20, label %22, label %lean_inc.exit16

22:                                               ; preds = %l_Lean_Elab_Command_getRef.exit
  %.val.i = load i32, ptr %7, align 4, !tbaa !4
  %23 = icmp sgt i32 %.val.i, 0
  br i1 %23, label %24, label %26, !prof !13

24:                                               ; preds = %22
  %25 = add nuw i32 %.val.i, 1
  store i32 %25, ptr %7, align 4, !tbaa !4
  br label %lean_inc.exit16

26:                                               ; preds = %22
  %.not.i21 = icmp eq i32 %.val.i, 0
  br i1 %.not.i21, label %lean_inc.exit16, label %27

27:                                               ; preds = %26
  tail call void @lean_inc_ref_cold(ptr noundef nonnull %7) #6
  br label %lean_inc.exit16

lean_inc.exit16:                                  ; preds = %27, %26, %24, %l_Lean_Elab_Command_getRef.exit
  %28 = ptrtoint ptr %4 to i64
  %29 = and i64 %28, 1
  %.not25 = icmp eq i64 %29, 0
  br i1 %.not25, label %30, label %lean_inc.exit

30:                                               ; preds = %lean_inc.exit16
  %.val.i22 = load i32, ptr %4, align 4, !tbaa !4
  %31 = icmp sgt i32 %.val.i22, 0
  br i1 %31, label %32, label %34, !prof !13

32:                                               ; preds = %30
  %33 = add nuw i32 %.val.i22, 1
  store i32 %33, ptr %4, align 4, !tbaa !4
  br label %lean_inc.exit

34:                                               ; preds = %30
  %.not.i23 = icmp eq i32 %.val.i22, 0
  br i1 %.not.i23, label %lean_inc.exit, label %35

35:                                               ; preds = %34
  tail call void @lean_inc_ref_cold(ptr noundef nonnull %4) #6
  br label %lean_inc.exit

lean_inc.exit:                                    ; preds = %35, %34, %32, %lean_inc.exit16
  %36 = ptrtoint ptr %16 to i64
  %37 = and i64 %36, 1
  %.not26 = icmp eq i64 %37, 0
  br i1 %.not26, label %38, label %lean_dec.exit17

38:                                               ; preds = %lean_inc.exit
  tail call void @lean_dec_ref_cold(ptr noundef nonnull %16) #6
  br label %lean_dec.exit17

lean_dec.exit17:                                  ; preds = %38, %lean_inc.exit
  %39 = tail call ptr @l_Lean_logAt___at_Lean_Elab_Command_withLoggingExceptions___spec__3(ptr noundef %7, ptr noundef %0, i8 noundef zeroext %1, i8 noundef zeroext 0, ptr noundef nonnull %2, ptr noundef %3, ptr noundef %4)
  br i1 %.not.i20, label %40, label %lean_dec.exit

40:                                               ; preds = %lean_dec.exit17
  %41 = load i32, ptr %7, align 4, !tbaa !4
  %42 = icmp sgt i32 %41, 1
  br i1 %42, label %43, label %45, !prof !13

43:                                               ; preds = %40
  %44 = add nsw i32 %41, -1
  store i32 %44, ptr %7, align 4, !tbaa !4
  br label %lean_dec.exit

45:                                               ; preds = %40
  %.not.i18 = icmp eq i32 %41, 0
  br i1 %.not.i18, label %lean_dec.exit, label %46

46:                                               ; preds = %45
  tail call void @lean_dec_ref_cold(ptr noundef nonnull %7) #6
  br label %lean_dec.exit

lean_dec.exit:                                    ; preds = %46, %45, %43, %lean_dec.exit17
  ret ptr %39
}